target datalayout = "e-m:e-p270:32:32-p271:32:32-p272:64:64-i64:64-i128:128-f80:128-n8:16:32:64-S128"
target triple = "x86_64-pc-linux-gnu"

%struct.UEnumeration = type { ptr, ptr, ptr, ptr, ptr, ptr, ptr }

; Function Attrs: inlinehint mustprogress nounwind uwtable
define internal noundef signext i8 @_ZL9U_SUCCESS10UErrorCode(i32 noundef %0) #1 {
  %2 = alloca i32, align 4
  store i32 %0, ptr %2, align 4, !tbaa !26
  %3 = load i32, ptr %2, align 4, !tbaa !26
  %4 = icmp sle i32 %3, 0
  %5 = zext i1 %4 to i8
  ret i8 %5
}

; Function Attrs: mustprogress uwtable
define ptr @uenum_openFromStringEnumeration_77(ptr noundef %0, ptr noundef %1) #0 {
  %3 = alloca ptr, align 8
  %4 = alloca ptr, align 8
  %5 = alloca ptr, align 8
  store ptr %0, ptr %3, align 8, !tbaa !3
  store ptr %1, ptr %4, align 8, !tbaa !25
  call void @llvm.lifetime.start.p0(i64 8, ptr %5) #12
  store ptr null, ptr %5, align 8, !tbaa !38
  %6 = load ptr, ptr %4, align 8, !tbaa !25
  %7 = load i32, ptr %6, align 4, !tbaa !26
  %8 = call noundef signext i8 @_ZL9U_SUCCESS10UErrorCode(i32 noundef %7)
  %9 = icmp ne i8 %8, 0
  br i1 %9, label %10, label %28

10:                                               ; preds = %2
  %11 = load ptr, ptr %3, align 8, !tbaa !3
  %12 = icmp ne ptr %11, null
  br i1 %12, label %13, label %28

13:                                               ; preds = %10
  %14 = call noalias ptr @uprv_malloc_77(i64 noundef 56) #14
  store ptr %14, ptr %5, align 8, !tbaa !38
  %15 = load ptr, ptr %5, align 8, !tbaa !38
  %16 = icmp eq ptr %15, null
  br i1 %16, label %17, label %19

17:                                               ; preds = %13
  %18 = load ptr, ptr %4, align 8, !tbaa !25
  store i32 7, ptr %18, align 4, !tbaa !26
  br label %27

19:                                               ; preds = %13
  br label %20

20:                                               ; preds = %19
  %21 = load ptr, ptr %5, align 8, !tbaa !38
  call void @llvm.memcpy.p0.p0.i64(ptr align 8 %21, ptr align 8 @_ZL11USTRENUM_VT, i64 56, i1 false)
  br label %22

22:                                               ; preds = %20
  br label %23

23:                                               ; preds = %22
  %24 = load ptr, ptr %3, align 8, !tbaa !3
  %25 = load ptr, ptr %5, align 8, !tbaa !38
  %26 = getelementptr inbounds nuw %struct.UEnumeration, ptr %25, i32 0, i32 1
  store ptr %24, ptr %26, align 8, !tbaa !44
  br label %27

27:                                               ; preds = %23, %17
  br label %28

28:                                               ; preds = %27, %10, %2
  %29 = load ptr, ptr %5, align 8, !tbaa !38
  %30 = icmp eq ptr %29, null
  br i1 %30, label %31, label %39

31:                                               ; preds = %28
  %32 = load ptr, ptr %3, align 8, !tbaa !3
  %33 = icmp eq ptr %32, null
  br i1 %33, label %38, label %34

34:                                               ; preds = %31
  %35 = load ptr, ptr %32, align 8, !tbaa !8
  %36 = getelementptr inbounds ptr, ptr %35, i64 1
  %37 = load ptr, ptr %36, align 8
  call void %37(ptr noundef nonnull align 8 dereferenceable(116) %32) #12
  br label %38

38:                                               ; preds = %34, %31
  br label %39

39:                                               ; preds = %38, %28
  %40 = load ptr, ptr %5, align 8, !tbaa !38
  call void @llvm.lifetime.end.p0(i64 8, ptr %5) #12
  ret ptr %40
}