; Function Attrs: mustprogress uwtable
define noundef ptr @uenum_openFromStringEnumeration_77(ptr noundef %0, ptr noundef captures(none) %1) local_unnamed_addr #9 {
  %3 = load i32, ptr %1, align 4, !tbaa !17
  %4 = icmp slt i32 %3, 1
  %5 = icmp ne ptr %0, null
  %or.cond = and i1 %5, %4
  br i1 %or.cond, label %6, label %10

6:                                                ; preds = %2
  %7 = tail call noalias dereferenceable_or_null(56) ptr @uprv_malloc_77(i64 noundef 56) #20
  %8 = icmp eq ptr %7, null
  br i1 %8, label %.thread18, label %.thread

.thread18:                                        ; preds = %6
  store i32 7, ptr %1, align 4, !tbaa !17
  br label %12

.thread:                                          ; preds = %6
  tail call void @llvm.memcpy.p0.p0.i64(ptr noundef nonnull align 8 dereferenceable(56) %7, ptr noundef nonnull align 8 dereferenceable(56) @_ZL11USTRENUM_VT, i64 56, i1 false)
  %9 = getelementptr inbounds nuw i8, ptr %7, i64 8
  store ptr %0, ptr %9, align 8, !tbaa !27
  br label %16

10:                                               ; preds = %2
  %11 = icmp eq ptr %0, null
  br i1 %11, label %16, label %12

12:                                               ; preds = %.thread18, %10
  %13 = load ptr, ptr %0, align 8, !tbaa !3
  %14 = getelementptr inbounds nuw i8, ptr %13, i64 8
  %15 = load ptr, ptr %14, align 8
  tail call void %15(ptr noundef nonnull align 8 dereferenceable(116) %0) #18
  br label %16

16:                                               ; preds = %.thread, %12, %10
  %.017 = phi ptr [ %7, %.thread ], [ null, %12 ], [ null, %10 ]
  ret ptr %.017
}